; Function Attrs: null_pointer_is_valid sspstrong uwtable
define internal void @post_update_someip_parameter_string_list_cb() #0 {
  %1 = load ptr, ptr @data_someip_parameter_strings, align 8
  %.not.i = icmp eq ptr %1, null
  br i1 %.not.i, label %3, label %2

2:                                                ; preds = %0
  tail call void @g_hash_table_destroy(ptr noundef nonnull %1)
  store ptr null, ptr @data_someip_parameter_strings, align 8
  br label %3

3:                                                ; preds = %2, %0
  %4 = load ptr, ptr @someip_module, align 8
  %.not.i.i = icmp eq ptr %4, null
  br i1 %.not.i.i, label %reset_someip_parameter_string_list_cb.exit, label %5

5:                                                ; preds = %3
  %6 = getelementptr inbounds nuw i8, ptr %4, i64 68
  %7 = load i32, ptr %6, align 4
  %8 = or i32 %7, 9
  store i32 %8, ptr %6, align 4
  br label %reset_someip_parameter_string_list_cb.exit

reset_someip_parameter_string_list_cb.exit:       ; preds = %3, %5
  %9 = tail call ptr @g_hash_table_new_full(ptr noundef nonnull @g_direct_hash, ptr noundef nonnull @g_direct_equal, ptr noundef null, ptr noundef null)
  store ptr %9, ptr @data_someip_parameter_strings, align 8
  %10 = load i32, ptr @someip_parameter_strings_num, align 4
  %.not = icmp eq i32 %10, 0
  br i1 %.not, label %._crit_edge, label %.lr.ph

.lr.ph:                                           ; preds = %reset_someip_parameter_string_list_cb.exit, %.lr.ph
  %indvars.iv = phi i64 [ %indvars.iv.next, %.lr.ph ], [ 0, %reset_someip_parameter_string_list_cb.exit ]
  %11 = load ptr, ptr @data_someip_parameter_strings, align 8
  %12 = load ptr, ptr @someip_parameter_strings, align 8
  %13 = getelementptr %struct._someip_payload_parameter_string, ptr %12, i64 %indvars.iv
  %14 = load i32, ptr %13, align 8
  %15 = zext i32 %14 to i64
  %16 = inttoptr i64 %15 to ptr
  %17 = tail call i32 @g_hash_table_insert(ptr noundef %11, ptr noundef %16, ptr noundef %13)
  %indvars.iv.next = add nuw nsw i64 %indvars.iv, 1
  %18 = load i32, ptr @someip_parameter_strings_num, align 4
  %19 = zext i32 %18 to i64
  %20 = icmp samesign ult i64 %indvars.iv.next, %19
  br i1 %20, label %.lr.ph, label %._crit_edge, !llvm.loop !22

._crit_edge:                                      ; preds = %.lr.ph, %reset_someip_parameter_string_list_cb.exit
  ret void
}